target datalayout = "e-m:e-p270:32:32-p271:32:32-p272:64:64-i64:64-i128:128-f80:128-n8:16:32:64-S128"
target triple = "x86_64-pc-linux-gnu"

%"class.pstd::span.2" = type { ptr, i64 }
%"class.pstd::span.3" = type { ptr, i64 }
%"class.pbrt::GammaColorEncoding" = type { float, %"class.pstd::array.11", %"class.pstd::array.12" }
%"class.pstd::array.11" = type { [256 x float] }
%"class.pstd::array.12" = type { [1024 x float] }

; Function Attrs: mustprogress nounwind uwtable
define linkonce_odr dso_local noundef nonnull align 4 dereferenceable(4) ptr @_ZN4pstd4spanIfEixEm(ptr noundef nonnull align 8 dereferenceable(16) %0, i64 noundef %1) #6 comdat align 2 {
  %3 = alloca ptr, align 8
  %4 = alloca i64, align 8
  store ptr %0, ptr %3, align 8, !tbaa !85
  store i64 %1, ptr %4, align 8, !tbaa !39
  %5 = load ptr, ptr %3, align 8
  br label %6

6:                                                ; preds = %2
  br label %7

7:                                                ; preds = %6
  %8 = getelementptr inbounds nuw %"class.pstd::span.3", ptr %5, i32 0, i32 0
  %9 = load ptr, ptr %8, align 8, !tbaa !87
  %10 = load i64, ptr %4, align 8, !tbaa !39
  %11 = getelementptr inbounds nuw float, ptr %9, i64 %10
  ret ptr %11
}

; Function Attrs: mustprogress nounwind uwtable
define linkonce_odr dso_local noundef nonnull align 4 dereferenceable(4) ptr @_ZNK4pstd5arrayIfLi256EEixEm(ptr noundef nonnull align 4 dereferenceable(1024) %0, i64 noundef %1) #6 comdat align 2 {
  %3 = alloca ptr, align 8
  %4 = alloca i64, align 8
  store ptr %0, ptr %3, align 8, !tbaa !128
  store i64 %1, ptr %4, align 8, !tbaa !39
  %5 = load ptr, ptr %3, align 8
  %6 = getelementptr inbounds nuw %"class.pstd::array.11", ptr %5, i32 0, i32 0
  %7 = load i64, ptr %4, align 8, !tbaa !39
  %8 = getelementptr inbounds nuw [256 x float], ptr %6, i64 0, i64 %7
  ret ptr %8
}

; Function Attrs: mustprogress nounwind uwtable
define linkonce_odr dso_local noundef nonnull align 1 dereferenceable(1) ptr @_ZN4pstd4spanIKhEixEm(ptr noundef nonnull align 8 dereferenceable(16) %0, i64 noundef %1) #6 comdat align 2 {
  %3 = alloca ptr, align 8
  %4 = alloca i64, align 8
  store ptr %0, ptr %3, align 8, !tbaa !80
  store i64 %1, ptr %4, align 8, !tbaa !39
  %5 = load ptr, ptr %3, align 8
  br label %6

6:                                                ; preds = %2
  br label %7

7:                                                ; preds = %6
  %8 = getelementptr inbounds nuw %"class.pstd::span.2", ptr %5, i32 0, i32 0
  %9 = load ptr, ptr %8, align 8, !tbaa !84
  %10 = load i64, ptr %4, align 8, !tbaa !39
  %11 = getelementptr inbounds nuw i8, ptr %9, i64 %10
  ret ptr %11
}

; Function Attrs: mustprogress nounwind uwtable
define linkonce_odr dso_local noundef i64 @_ZNK4pstd4spanIKhE4sizeEv(ptr noundef nonnull align 8 dereferenceable(16) %0) #6 comdat align 2 {
  %2 = alloca ptr, align 8
  store ptr %0, ptr %2, align 8, !tbaa !80
  %3 = load ptr, ptr %2, align 8
  %4 = getelementptr inbounds nuw %"class.pstd::span.2", ptr %3, i32 0, i32 1
  %5 = load i64, ptr %4, align 8, !tbaa !82
  ret i64 %5
}

; Function Attrs: mustprogress uwtable
define dso_local void @_ZNK4pbrt18GammaColorEncoding8ToLinearEN4pstd4spanIKhEENS2_IfEE(ptr noundef nonnull align 4 dereferenceable(5124) %0, ptr %1, i64 %2, ptr %3, i64 %4) #1 align 2 {
  %6 = alloca %"class.pstd::span.2", align 8
  %7 = alloca %"class.pstd::span.3", align 8
  %8 = alloca ptr, align 8
  %9 = alloca i64, align 8
  %10 = getelementptr inbounds nuw { ptr, i64 }, ptr %6, i32 0, i32 0
  store ptr %1, ptr %10, align 8
  %11 = getelementptr inbounds nuw { ptr, i64 }, ptr %6, i32 0, i32 1
  store i64 %2, ptr %11, align 8
  %12 = getelementptr inbounds nuw { ptr, i64 }, ptr %7, i32 0, i32 0
  store ptr %3, ptr %12, align 8
  %13 = getelementptr inbounds nuw { ptr, i64 }, ptr %7, i32 0, i32 1
  store i64 %4, ptr %13, align 8
  store ptr %0, ptr %8, align 8, !tbaa !118
  %14 = load ptr, ptr %8, align 8
  br label %15

15:                                               ; preds = %5
  br label %16

16:                                               ; preds = %15
  call void @llvm.lifetime.start.p0(i64 8, ptr %9) #9
  store i64 0, ptr %9, align 8, !tbaa !39
  br label %17

17:                                               ; preds = %32, %16
  %18 = load i64, ptr %9, align 8, !tbaa !39
  %19 = call noundef i64 @_ZNK4pstd4spanIKhE4sizeEv(ptr noundef nonnull align 8 dereferenceable(16) %6)
  %20 = icmp ult i64 %18, %19
  br i1 %20, label %22, label %21

21:                                               ; preds = %17
  call void @llvm.lifetime.end.p0(i64 8, ptr %9) #9
  br label %35

22:                                               ; preds = %17
  %23 = getelementptr inbounds nuw %"class.pbrt::GammaColorEncoding", ptr %14, i32 0, i32 1
  %24 = load i64, ptr %9, align 8, !tbaa !39
  %25 = call noundef nonnull align 1 dereferenceable(1) ptr @_ZN4pstd4spanIKhEixEm(ptr noundef nonnull align 8 dereferenceable(16) %6, i64 noundef %24)
  %26 = load i8, ptr %25, align 1, !tbaa !68
  %27 = zext i8 %26 to i64
  %28 = call noundef nonnull align 4 dereferenceable(4) ptr @_ZNK4pstd5arrayIfLi256EEixEm(ptr noundef nonnull align 4 dereferenceable(1024) %23, i64 noundef %27)
  %29 = load float, ptr %28, align 4, !tbaa !9
  %30 = load i64, ptr %9, align 8, !tbaa !39
  %31 = call noundef nonnull align 4 dereferenceable(4) ptr @_ZN4pstd4spanIfEixEm(ptr noundef nonnull align 8 dereferenceable(16) %7, i64 noundef %30)
  store float %29, ptr %31, align 4, !tbaa !9
  br label %32

32:                                               ; preds = %22
  %33 = load i64, ptr %9, align 8, !tbaa !39
  %34 = add i64 %33, 1
  store i64 %34, ptr %9, align 8, !tbaa !39
  br label %17, !llvm.loop !132

35:                                               ; preds = %21
  ret void
}