; Function Attrs: mustprogress nofree norecurse nosync nounwind memory(argmem: readwrite) uwtable
define dso_local void @_ZNK4pbrt18GammaColorEncoding8ToLinearEN4pstd4spanIKhEENS2_IfEE(ptr noundef nonnull readonly align 4 captures(none) dereferenceable(5124) %0, ptr readonly captures(none) %1, i64 %2, ptr writeonly captures(none) %3, i64 %4) local_unnamed_addr #5 align 2 {
  %.not = icmp eq i64 %2, 0
  br i1 %.not, label %._crit_edge, label %.lr.ph

.lr.ph:                                           ; preds = %5
  %6 = getelementptr inbounds nuw i8, ptr %0, i64 4
  br label %7

._crit_edge:                                      ; preds = %7, %5
  ret void

7:                                                ; preds = %.lr.ph, %7
  %.06 = phi i64 [ 0, %.lr.ph ], [ %14, %7 ]
  %8 = getelementptr inbounds nuw i8, ptr %1, i64 %.06
  %9 = load i8, ptr %8, align 1, !tbaa !16
  %10 = zext i8 %9 to i64
  %11 = getelementptr inbounds nuw [256 x float], ptr %6, i64 0, i64 %10
  %12 = load float, ptr %11, align 4, !tbaa !26
  %13 = getelementptr inbounds nuw float, ptr %3, i64 %.06
  store float %12, ptr %13, align 4, !tbaa !26
  %14 = add nuw i64 %.06, 1
  %exitcond.not = icmp eq i64 %14, %2
  br i1 %exitcond.not, label %._crit_edge, label %7, !llvm.loop !115
}